target datalayout = "e-m:e-p270:32:32-p271:32:32-p272:64:64-i64:64-i128:128-f80:128-n8:16:32:64-S128"
target triple = "x86_64-pc-linux-gnu"

@.str.35 = private unnamed_addr constant [83 x i8] c"A result of type %s requires at least one input of type anyrange or anymultirange.\00", align 1
@.str.36 = private unnamed_addr constant [103 x i8] c"A result of type %s requires at least one input of type anycompatiblerange or anycompatiblemultirange.\00", align 1
@.str.37 = private unnamed_addr constant [128 x i8] c"A result of type %s requires at least one input of type anyelement, anyarray, anynonarray, anyenum, anyrange, or anymultirange.\00", align 1
@.str.38 = private unnamed_addr constant [162 x i8] c"A result of type %s requires at least one input of type anycompatible, anycompatiblearray, anycompatiblenonarray, anycompatiblerange, or anycompatiblemultirange.\00", align 1

; Function Attrs: nounwind uwtable
define dso_local ptr @check_valid_polymorphic_signature(i32 noundef %0, ptr noundef %1, i32 noundef %2) #0 {
  %4 = alloca ptr, align 8
  %5 = alloca i32, align 4
  %6 = alloca ptr, align 8
  %7 = alloca i32, align 4
  %8 = alloca i32, align 4
  %9 = alloca i32, align 4
  %10 = alloca i32, align 4
  %11 = alloca i32, align 4
  %12 = alloca i32, align 4
  store i32 %0, ptr %5, align 4
  store ptr %1, ptr %6, align 8
  store i32 %2, ptr %7, align 4
  %13 = load i32, ptr %5, align 4
  %14 = icmp eq i32 %13, 3831
  br i1 %14, label %18, label %15

15:                                               ; preds = %3
  %16 = load i32, ptr %5, align 4
  %17 = icmp eq i32 %16, 4537
  br i1 %17, label %18, label %49

18:                                               ; preds = %15, %3
  call void @llvm.lifetime.start.p0(i64 4, ptr %8) #6
  store i32 0, ptr %8, align 4
  br label %19

19:                                               ; preds = %40, %18
  %20 = load i32, ptr %8, align 4
  %21 = load i32, ptr %7, align 4
  %22 = icmp slt i32 %20, %21
  br i1 %22, label %24, label %23

23:                                               ; preds = %19
  store i32 2, ptr %9, align 4
  br label %43

24:                                               ; preds = %19
  %25 = load ptr, ptr %6, align 8
  %26 = load i32, ptr %8, align 4
  %27 = sext i32 %26 to i64
  %28 = getelementptr inbounds i32, ptr %25, i64 %27
  %29 = load i32, ptr %28, align 4
  %30 = icmp eq i32 %29, 3831
  br i1 %30, label %38, label %31

31:                                               ; preds = %24
  %32 = load ptr, ptr %6, align 8
  %33 = load i32, ptr %8, align 4
  %34 = sext i32 %33 to i64
  %35 = getelementptr inbounds i32, ptr %32, i64 %34
  %36 = load i32, ptr %35, align 4
  %37 = icmp eq i32 %36, 4537
  br i1 %37, label %38, label %39

38:                                               ; preds = %31, %24
  store ptr null, ptr %4, align 8
  store i32 1, ptr %9, align 4
  br label %43

39:                                               ; preds = %31
  br label %40

40:                                               ; preds = %39
  %41 = load i32, ptr %8, align 4
  %42 = add i32 %41, 1
  store i32 %42, ptr %8, align 4
  br label %19, !llvm.loop !21

43:                                               ; preds = %38, %23
  call void @llvm.lifetime.end.p0(i64 4, ptr %8) #6
  %44 = load i32, ptr %9, align 4
  switch i32 %44, label %233 [
    i32 2, label %45
    i32 1, label %231
  ]

45:                                               ; preds = %43
  %46 = load i32, ptr %5, align 4
  %47 = call ptr @format_type_be(i32 noundef %46)
  %48 = call ptr (ptr, ...) @psprintf(ptr noundef @.str.35, ptr noundef %47)
  store ptr %48, ptr %4, align 8
  br label %231

49:                                               ; preds = %15
  %50 = load i32, ptr %5, align 4
  %51 = icmp eq i32 %50, 5080
  br i1 %51, label %55, label %52

52:                                               ; preds = %49
  %53 = load i32, ptr %5, align 4
  %54 = icmp eq i32 %53, 4538
  br i1 %54, label %55, label %86

55:                                               ; preds = %52, %49
  call void @llvm.lifetime.start.p0(i64 4, ptr %10) #6
  store i32 0, ptr %10, align 4
  br label %56

56:                                               ; preds = %77, %55
  %57 = load i32, ptr %10, align 4
  %58 = load i32, ptr %7, align 4
  %59 = icmp slt i32 %57, %58
  br i1 %59, label %61, label %60

60:                                               ; preds = %56
  store i32 5, ptr %9, align 4
  br label %80

61:                                               ; preds = %56
  %62 = load ptr, ptr %6, align 8
  %63 = load i32, ptr %10, align 4
  %64 = sext i32 %63 to i64
  %65 = getelementptr inbounds i32, ptr %62, i64 %64
  %66 = load i32, ptr %65, align 4
  %67 = icmp eq i32 %66, 5080
  br i1 %67, label %75, label %68

68:                                               ; preds = %61
  %69 = load ptr, ptr %6, align 8
  %70 = load i32, ptr %10, align 4
  %71 = sext i32 %70 to i64
  %72 = getelementptr inbounds i32, ptr %69, i64 %71
  %73 = load i32, ptr %72, align 4
  %74 = icmp eq i32 %73, 4538
  br i1 %74, label %75, label %76

75:                                               ; preds = %68, %61
  store ptr null, ptr %4, align 8
  store i32 1, ptr %9, align 4
  br label %80

76:                                               ; preds = %68
  br label %77

77:                                               ; preds = %76
  %78 = load i32, ptr %10, align 4
  %79 = add i32 %78, 1
  store i32 %79, ptr %10, align 4
  br label %56, !llvm.loop !22

80:                                               ; preds = %75, %60
  call void @llvm.lifetime.end.p0(i64 4, ptr %10) #6
  %81 = load i32, ptr %9, align 4
  switch i32 %81, label %233 [
    i32 5, label %82
    i32 1, label %231
  ]

82:                                               ; preds = %80
  %83 = load i32, ptr %5, align 4
  %84 = call ptr @format_type_be(i32 noundef %83)
  %85 = call ptr (ptr, ...) @psprintf(ptr noundef @.str.36, ptr noundef %84)
  store ptr %85, ptr %4, align 8
  br label %231

86:                                               ; preds = %52
  %87 = load i32, ptr %5, align 4
  %88 = icmp eq i32 %87, 2283
  br i1 %88, label %104, label %89

89:                                               ; preds = %86
  %90 = load i32, ptr %5, align 4
  %91 = icmp eq i32 %90, 2277
  br i1 %91, label %104, label %92

92:                                               ; preds = %89
  %93 = load i32, ptr %5, align 4
  %94 = icmp eq i32 %93, 2776
  br i1 %94, label %104, label %95

95:                                               ; preds = %92
  %96 = load i32, ptr %5, align 4
  %97 = icmp eq i32 %96, 3500
  br i1 %97, label %104, label %98

98:                                               ; preds = %95
  %99 = load i32, ptr %5, align 4
  %100 = icmp eq i32 %99, 3831
  br i1 %100, label %104, label %101

101:                                              ; preds = %98
  %102 = load i32, ptr %5, align 4
  %103 = icmp eq i32 %102, 4537
  br i1 %103, label %104, label %163

104:                                              ; preds = %101, %98, %95, %92, %89, %86
  call void @llvm.lifetime.start.p0(i64 4, ptr %11) #6
  store i32 0, ptr %11, align 4
  br label %105

105:                                              ; preds = %154, %104
  %106 = load i32, ptr %11, align 4
  %107 = load i32, ptr %7, align 4
  %108 = icmp slt i32 %106, %107
  br i1 %108, label %110, label %109

109:                                              ; preds = %105
  store i32 8, ptr %9, align 4
  br label %157

110:                                              ; preds = %105
  %111 = load ptr, ptr %6, align 8
  %112 = load i32, ptr %11, align 4
  %113 = sext i32 %112 to i64
  %114 = getelementptr inbounds i32, ptr %111, i64 %113
  %115 = load i32, ptr %114, align 4
  %116 = icmp eq i32 %115, 2283
  br i1 %116, label %152, label %117

117:                                              ; preds = %110
  %118 = load ptr, ptr %6, align 8
  %119 = load i32, ptr %11, align 4
  %120 = sext i32 %119 to i64
  %121 = getelementptr inbounds i32, ptr %118, i64 %120
  %122 = load i32, ptr %121, align 4
  %123 = icmp eq i32 %122, 2277
  br i1 %123, label %152, label %124

124:                                              ; preds = %117
  %125 = load ptr, ptr %6, align 8
  %126 = load i32, ptr %11, align 4
  %127 = sext i32 %126 to i64
  %128 = getelementptr inbounds i32, ptr %125, i64 %127
  %129 = load i32, ptr %128, align 4
  %130 = icmp eq i32 %129, 2776
  br i1 %130, label %152, label %131

131:                                              ; preds = %124
  %132 = load ptr, ptr %6, align 8
  %133 = load i32, ptr %11, align 4
  %134 = sext i32 %133 to i64
  %135 = getelementptr inbounds i32, ptr %132, i64 %134
  %136 = load i32, ptr %135, align 4
  %137 = icmp eq i32 %136, 3500
  br i1 %137, label %152, label %138

138:                                              ; preds = %131
  %139 = load ptr, ptr %6, align 8
  %140 = load i32, ptr %11, align 4
  %141 = sext i32 %140 to i64
  %142 = getelementptr inbounds i32, ptr %139, i64 %141
  %143 = load i32, ptr %142, align 4
  %144 = icmp eq i32 %143, 3831
  br i1 %144, label %152, label %145

145:                                              ; preds = %138
  %146 = load ptr, ptr %6, align 8
  %147 = load i32, ptr %11, align 4
  %148 = sext i32 %147 to i64
  %149 = getelementptr inbounds i32, ptr %146, i64 %148
  %150 = load i32, ptr %149, align 4
  %151 = icmp eq i32 %150, 4537
  br i1 %151, label %152, label %153

152:                                              ; preds = %145, %138, %131, %124, %117, %110
  store ptr null, ptr %4, align 8
  store i32 1, ptr %9, align 4
  br label %157

153:                                              ; preds = %145
  br label %154

154:                                              ; preds = %153
  %155 = load i32, ptr %11, align 4
  %156 = add i32 %155, 1
  store i32 %156, ptr %11, align 4
  br label %105, !llvm.loop !23

157:                                              ; preds = %152, %109
  call void @llvm.lifetime.end.p0(i64 4, ptr %11) #6
  %158 = load i32, ptr %9, align 4
  switch i32 %158, label %233 [
    i32 8, label %159
    i32 1, label %231
  ]

159:                                              ; preds = %157
  %160 = load i32, ptr %5, align 4
  %161 = call ptr @format_type_be(i32 noundef %160)
  %162 = call ptr (ptr, ...) @psprintf(ptr noundef @.str.37, ptr noundef %161)
  store ptr %162, ptr %4, align 8
  br label %231

163:                                              ; preds = %101
  %164 = load i32, ptr %5, align 4
  %165 = icmp eq i32 %164, 5077
  br i1 %165, label %178, label %166

166:                                              ; preds = %163
  %167 = load i32, ptr %5, align 4
  %168 = icmp eq i32 %167, 5078
  br i1 %168, label %178, label %169

169:                                              ; preds = %166
  %170 = load i32, ptr %5, align 4
  %171 = icmp eq i32 %170, 5079
  br i1 %171, label %178, label %172

172:                                              ; preds = %169
  %173 = load i32, ptr %5, align 4
  %174 = icmp eq i32 %173, 5080
  br i1 %174, label %178, label %175

175:                                              ; preds = %172
  %176 = load i32, ptr %5, align 4
  %177 = icmp eq i32 %176, 4538
  br i1 %177, label %178, label %230

178:                                              ; preds = %175, %172, %169, %166, %163
  call void @llvm.lifetime.start.p0(i64 4, ptr %12) #6
  store i32 0, ptr %12, align 4
  br label %179

179:                                              ; preds = %221, %178
  %180 = load i32, ptr %12, align 4
  %181 = load i32, ptr %7, align 4
  %182 = icmp slt i32 %180, %181
  br i1 %182, label %184, label %183

183:                                              ; preds = %179
  store i32 11, ptr %9, align 4
  br label %224

184:                                              ; preds = %179
  %185 = load ptr, ptr %6, align 8
  %186 = load i32, ptr %12, align 4
  %187 = sext i32 %186 to i64
  %188 = getelementptr inbounds i32, ptr %185, i64 %187
  %189 = load i32, ptr %188, align 4
  %190 = icmp eq i32 %189, 5077
  br i1 %190, label %219, label %191

191:                                              ; preds = %184
  %192 = load ptr, ptr %6, align 8
  %193 = load i32, ptr %12, align 4
  %194 = sext i32 %193 to i64
  %195 = getelementptr inbounds i32, ptr %192, i64 %194
  %196 = load i32, ptr %195, align 4
  %197 = icmp eq i32 %196, 5078
  br i1 %197, label %219, label %198

198:                                              ; preds = %191
  %199 = load ptr, ptr %6, align 8
  %200 = load i32, ptr %12, align 4
  %201 = sext i32 %200 to i64
  %202 = getelementptr inbounds i32, ptr %199, i64 %201
  %203 = load i32, ptr %202, align 4
  %204 = icmp eq i32 %203, 5079
  br i1 %204, label %219, label %205

205:                                              ; preds = %198
  %206 = load ptr, ptr %6, align 8
  %207 = load i32, ptr %12, align 4
  %208 = sext i32 %207 to i64
  %209 = getelementptr inbounds i32, ptr %206, i64 %208
  %210 = load i32, ptr %209, align 4
  %211 = icmp eq i32 %210, 5080
  br i1 %211, label %219, label %212

212:                                              ; preds = %205
  %213 = load ptr, ptr %6, align 8
  %214 = load i32, ptr %12, align 4
  %215 = sext i32 %214 to i64
  %216 = getelementptr inbounds i32, ptr %213, i64 %215
  %217 = load i32, ptr %216, align 4
  %218 = icmp eq i32 %217, 4538
  br i1 %218, label %219, label %220

219:                                              ; preds = %212, %205, %198, %191, %184
  store ptr null, ptr %4, align 8
  store i32 1, ptr %9, align 4
  br label %224

220:                                              ; preds = %212
  br label %221

221:                                              ; preds = %220
  %222 = load i32, ptr %12, align 4
  %223 = add i32 %222, 1
  store i32 %223, ptr %12, align 4
  br label %179, !llvm.loop !24

224:                                              ; preds = %219, %183
  call void @llvm.lifetime.end.p0(i64 4, ptr %12) #6
  %225 = load i32, ptr %9, align 4
  switch i32 %225, label %233 [
    i32 11, label %226
    i32 1, label %231
  ]

226:                                              ; preds = %224
  %227 = load i32, ptr %5, align 4
  %228 = call ptr @format_type_be(i32 noundef %227)
  %229 = call ptr (ptr, ...) @psprintf(ptr noundef @.str.38, ptr noundef %228)
  store ptr %229, ptr %4, align 8
  br label %231

230:                                              ; preds = %175
  store ptr null, ptr %4, align 8
  br label %231

231:                                              ; preds = %230, %226, %224, %159, %157, %82, %80, %45, %43
  %232 = load ptr, ptr %4, align 8
  ret ptr %232

233:                                              ; preds = %224, %157, %80, %43
  unreachable
}