; Function Attrs: nounwind uwtable
define dso_local ptr @check_valid_polymorphic_signature(i32 noundef %0, ptr noundef readonly captures(none) %1, i32 noundef %2) local_unnamed_addr #0 {
  switch i32 %0, label %19 [
    i32 4537, label %4
    i32 3831, label %4
    i32 5080, label %9
    i32 4538, label %9
    i32 3500, label %14
    i32 2776, label %14
    i32 2283, label %14
    i32 2277, label %14
  ]

4:                                                ; preds = %3, %3
  %5 = icmp sgt i32 %2, 0
  br i1 %5, label %.lr.ph149.preheader, label %.thread108.sink.split

.lr.ph149.preheader:                              ; preds = %4
  %wide.trip.count166 = zext nneg i32 %2 to i64
  br label %.lr.ph149

.lr.ph149:                                        ; preds = %.lr.ph149.preheader, %8
  %indvars.iv163 = phi i64 [ 0, %.lr.ph149.preheader ], [ %indvars.iv.next164, %8 ]
  %6 = getelementptr inbounds nuw i32, ptr %1, i64 %indvars.iv163
  %7 = load i32, ptr %6, align 4
  switch i32 %7, label %8 [
    i32 3831, label %.thread108
    i32 4537, label %.thread108
  ]

8:                                                ; preds = %.lr.ph149
  %indvars.iv.next164 = add nuw nsw i64 %indvars.iv163, 1
  %exitcond167.not = icmp eq i64 %indvars.iv.next164, %wide.trip.count166
  br i1 %exitcond167.not, label %.thread108.sink.split, label %.lr.ph149, !llvm.loop !19

9:                                                ; preds = %3, %3
  %10 = icmp sgt i32 %2, 0
  br i1 %10, label %.lr.ph145.preheader, label %.thread108.sink.split

.lr.ph145.preheader:                              ; preds = %9
  %wide.trip.count161 = zext nneg i32 %2 to i64
  br label %.lr.ph145

.lr.ph145:                                        ; preds = %.lr.ph145.preheader, %13
  %indvars.iv158 = phi i64 [ 0, %.lr.ph145.preheader ], [ %indvars.iv.next159, %13 ]
  %11 = getelementptr inbounds nuw i32, ptr %1, i64 %indvars.iv158
  %12 = load i32, ptr %11, align 4
  switch i32 %12, label %13 [
    i32 5080, label %.thread108
    i32 4538, label %.thread108
  ]

13:                                               ; preds = %.lr.ph145
  %indvars.iv.next159 = add nuw nsw i64 %indvars.iv158, 1
  %exitcond162.not = icmp eq i64 %indvars.iv.next159, %wide.trip.count161
  br i1 %exitcond162.not, label %.thread108.sink.split, label %.lr.ph145, !llvm.loop !20

14:                                               ; preds = %3, %3, %3, %3
  %15 = icmp sgt i32 %2, 0
  br i1 %15, label %.lr.ph.preheader, label %.thread108.sink.split

.lr.ph.preheader:                                 ; preds = %14
  %wide.trip.count = zext nneg i32 %2 to i64
  br label %.lr.ph

.lr.ph:                                           ; preds = %.lr.ph.preheader, %18
  %indvars.iv = phi i64 [ 0, %.lr.ph.preheader ], [ %indvars.iv.next, %18 ]
  %16 = getelementptr inbounds nuw i32, ptr %1, i64 %indvars.iv
  %17 = load i32, ptr %16, align 4
  switch i32 %17, label %18 [
    i32 2283, label %.thread108
    i32 2277, label %.thread108
    i32 2776, label %.thread108
    i32 3500, label %.thread108
    i32 3831, label %.thread108
    i32 4537, label %.thread108
  ]

18:                                               ; preds = %.lr.ph
  %indvars.iv.next = add nuw nsw i64 %indvars.iv, 1
  %exitcond.not = icmp eq i64 %indvars.iv.next, %wide.trip.count
  br i1 %exitcond.not, label %.thread108.sink.split, label %.lr.ph, !llvm.loop !21

19:                                               ; preds = %3
  %20 = add i32 %0, -5077
  %or.cond17 = icmp ult i32 %20, 3
  br i1 %or.cond17, label %.preheader, label %.thread108

.preheader:                                       ; preds = %19
  %21 = icmp sgt i32 %2, 0
  br i1 %21, label %.lr.ph152.preheader, label %.thread108.sink.split

.lr.ph152.preheader:                              ; preds = %.preheader
  %wide.trip.count171 = zext nneg i32 %2 to i64
  br label %.lr.ph152

.lr.ph152:                                        ; preds = %.lr.ph152.preheader, %24
  %indvars.iv168 = phi i64 [ 0, %.lr.ph152.preheader ], [ %indvars.iv.next169, %24 ]
  %22 = getelementptr inbounds nuw i32, ptr %1, i64 %indvars.iv168
  %23 = load i32, ptr %22, align 4
  switch i32 %23, label %24 [
    i32 5077, label %.thread108
    i32 5078, label %.thread108
    i32 5079, label %.thread108
    i32 5080, label %.thread108
    i32 4538, label %.thread108
  ]

24:                                               ; preds = %.lr.ph152
  %indvars.iv.next169 = add nuw nsw i64 %indvars.iv168, 1
  %exitcond172.not = icmp eq i64 %indvars.iv.next169, %wide.trip.count171
  br i1 %exitcond172.not, label %.thread108.sink.split, label %.lr.ph152, !llvm.loop !22

.thread108.sink.split:                            ; preds = %18, %13, %8, %24, %.preheader, %14, %9, %4
  %.str.38.sink = phi ptr [ @.str.35, %4 ], [ @.str.36, %9 ], [ @.str.37, %14 ], [ @.str.38, %.preheader ], [ @.str.38, %24 ], [ @.str.35, %8 ], [ @.str.36, %13 ], [ @.str.37, %18 ]
  %25 = tail call ptr @format_type_be(i32 noundef %0) #5
  %26 = tail call ptr (ptr, ...) @psprintf(ptr noundef nonnull %.str.38.sink, ptr noundef %25) #5
  br label %.thread108

.thread108:                                       ; preds = %.lr.ph, %.lr.ph, %.lr.ph, %.lr.ph, %.lr.ph, %.lr.ph, %.lr.ph145, %.lr.ph145, %.lr.ph149, %.lr.ph149, %.lr.ph152, %.lr.ph152, %.lr.ph152, %.lr.ph152, %.lr.ph152, %.thread108.sink.split, %19
  %.191 = phi ptr [ null, %19 ], [ %26, %.thread108.sink.split ], [ null, %.lr.ph152 ], [ null, %.lr.ph152 ], [ null, %.lr.ph152 ], [ null, %.lr.ph152 ], [ null, %.lr.ph152 ], [ null, %.lr.ph149 ], [ null, %.lr.ph149 ], [ null, %.lr.ph145 ], [ null, %.lr.ph145 ], [ null, %.lr.ph ], [ null, %.lr.ph ], [ null, %.lr.ph ], [ null, %.lr.ph ], [ null, %.lr.ph ], [ null, %.lr.ph ]
  ret ptr %.191
}